target datalayout = "e-m:e-p270:32:32-p271:32:32-p272:64:64-i64:64-i128:128-f80:128-n8:16:32:64-S128"
target triple = "x86_64-pc-linux-gnu"

%struct.CVodeMemRec = type { double, ptr, ptr, i32, i32, i32, double, double, ptr, i32, ptr, ptr, i32, ptr, i32, i32, double, double, ptr, i32, i32, i32, ptr, ptr, ptr, i32, i32, ptr, ptr, ptr, i32, double, i32, i32, double, ptr, ptr, i32, ptr, ptr, i32, i32, i32, double, ptr, ptr, [13 x ptr], ptr, ptr, ptr, ptr, ptr, [13 x ptr], ptr, ptr, ptr, ptr, [13 x ptr], ptr, ptr, ptr, ptr, ptr, i32, [13 x ptr], ptr, ptr, ptr, ptr, ptr, i32, double, i32, i32, i32, i32, i32, double, double, double, double, double, double, double, double, [14 x double], [6 x double], [13 x double], double, double, double, double, double, double, double, double, double, double, double, i32, ptr, i32, i64, i32, i32, i32, i32, i32, double, double, double, i64, i64, i64, i64, i64, i64, i64, i64, i64, ptr, i64, i64, ptr, i64, i64, i64, i64, i64, i64, i32, i64, i64, i64, i64, i64, i64, double, double, double, ptr, ptr, ptr, ptr, ptr, i32, i32, i64, double, double, double, i32, double, i32, i32, i32, i32, i32, i32, i32, i32, i32, i32, i32, i32, i32, i32, i32, i32, ptr, ptr, ptr, i32, [6 x [4 x double]], i32, i64, ptr, i32, ptr, ptr, double, double, double, ptr, ptr, ptr, double, double, i32, i32, i64, ptr, i32, i32, ptr, i32 }
%struct.CVadjMemRec = type { double, double, i32, i32, double, ptr, i32, ptr, i32, ptr, i32, ptr, i64, ptr, i64, i32, ptr, ptr, ptr, ptr, i32, i32, i32, i32, [13 x ptr], [13 x ptr], [13 x double], ptr, ptr, i64 }
%struct.CVodeBMemRec = type { i32, double, ptr, i32, i32, ptr, ptr, ptr, ptr, ptr, ptr, ptr, ptr, ptr, double, ptr, ptr }
%struct.CVDlsMemRecB = type { i32, ptr, ptr, ptr, ptr }

@.str.5 = private unnamed_addr constant [7 x i8] c"CVSDLS\00", align 1
@.str.26 = private unnamed_addr constant [25 x i8] c"Bad t for interpolation.\00", align 1
@.str.29 = private unnamed_addr constant [22 x i8] c"cvDlsBandJacBSWrapper\00", align 1

; Function Attrs: nounwind uwtable
define internal i32 @cvDlsBandJacBSWrapper(i64 noundef %0, i64 noundef %1, i64 noundef %2, double noundef %3, ptr noundef %4, ptr noundef %5, ptr noundef %6, ptr noundef %7, ptr noundef %8, ptr noundef %9, ptr noundef %10) #0 {
  %12 = alloca i32, align 4
  %13 = alloca i64, align 8
  %14 = alloca i64, align 8
  %15 = alloca i64, align 8
  %16 = alloca double, align 8
  %17 = alloca ptr, align 8
  %18 = alloca ptr, align 8
  %19 = alloca ptr, align 8
  %20 = alloca ptr, align 8
  %21 = alloca ptr, align 8
  %22 = alloca ptr, align 8
  %23 = alloca ptr, align 8
  %24 = alloca ptr, align 8
  %25 = alloca ptr, align 8
  %26 = alloca ptr, align 8
  %27 = alloca ptr, align 8
  %28 = alloca i32, align 4
  %29 = alloca i32, align 4
  %30 = alloca i32, align 4
  store i64 %0, ptr %13, align 8, !tbaa !31
  store i64 %1, ptr %14, align 8, !tbaa !31
  store i64 %2, ptr %15, align 8, !tbaa !31
  store double %3, ptr %16, align 8, !tbaa !40
  store ptr %4, ptr %17, align 8, !tbaa !41
  store ptr %5, ptr %18, align 8, !tbaa !41
  store ptr %6, ptr %19, align 8, !tbaa !42
  store ptr %7, ptr %20, align 8, !tbaa !3
  store ptr %8, ptr %21, align 8, !tbaa !41
  store ptr %9, ptr %22, align 8, !tbaa !41
  store ptr %10, ptr %23, align 8, !tbaa !41
  call void @llvm.lifetime.start.p0(i64 8, ptr %24) #5
  call void @llvm.lifetime.start.p0(i64 8, ptr %25) #5
  call void @llvm.lifetime.start.p0(i64 8, ptr %26) #5
  call void @llvm.lifetime.start.p0(i64 8, ptr %27) #5
  call void @llvm.lifetime.start.p0(i64 4, ptr %28) #5
  call void @llvm.lifetime.start.p0(i64 4, ptr %29) #5
  %31 = load ptr, ptr %20, align 8, !tbaa !3
  store ptr %31, ptr %24, align 8, !tbaa !7
  %32 = load ptr, ptr %24, align 8, !tbaa !7
  %33 = getelementptr inbounds nuw %struct.CVodeMemRec, ptr %32, i32 0, i32 194
  %34 = load ptr, ptr %33, align 8, !tbaa !62
  store ptr %34, ptr %25, align 8, !tbaa !63
  %35 = load ptr, ptr %25, align 8, !tbaa !63
  %36 = getelementptr inbounds nuw %struct.CVadjMemRec, ptr %35, i32 0, i32 7
  %37 = load ptr, ptr %36, align 8, !tbaa !81
  store ptr %37, ptr %26, align 8, !tbaa !70
  %38 = load ptr, ptr %26, align 8, !tbaa !70
  %39 = getelementptr inbounds nuw %struct.CVodeBMemRec, ptr %38, i32 0, i32 10
  %40 = load ptr, ptr %39, align 8, !tbaa !76
  store ptr %40, ptr %27, align 8, !tbaa !77
  %41 = load ptr, ptr %25, align 8, !tbaa !63
  %42 = getelementptr inbounds nuw %struct.CVadjMemRec, ptr %41, i32 0, i32 23
  %43 = load i32, ptr %42, align 4, !tbaa !87
  %44 = icmp ne i32 %43, 0
  br i1 %44, label %45, label %58

45:                                               ; preds = %11
  %46 = load ptr, ptr %25, align 8, !tbaa !63
  %47 = getelementptr inbounds nuw %struct.CVadjMemRec, ptr %46, i32 0, i32 19
  %48 = load ptr, ptr %47, align 8, !tbaa !82
  %49 = load ptr, ptr %24, align 8, !tbaa !7
  %50 = load double, ptr %16, align 8, !tbaa !40
  %51 = load ptr, ptr %25, align 8, !tbaa !63
  %52 = getelementptr inbounds nuw %struct.CVadjMemRec, ptr %51, i32 0, i32 27
  %53 = load ptr, ptr %52, align 8, !tbaa !83
  %54 = load ptr, ptr %25, align 8, !tbaa !63
  %55 = getelementptr inbounds nuw %struct.CVadjMemRec, ptr %54, i32 0, i32 28
  %56 = load ptr, ptr %55, align 8, !tbaa !88
  %57 = call i32 %48(ptr noundef %49, double noundef %50, ptr noundef %53, ptr noundef %56)
  store i32 %57, ptr %29, align 4, !tbaa !43
  br label %68

58:                                               ; preds = %11
  %59 = load ptr, ptr %25, align 8, !tbaa !63
  %60 = getelementptr inbounds nuw %struct.CVadjMemRec, ptr %59, i32 0, i32 19
  %61 = load ptr, ptr %60, align 8, !tbaa !82
  %62 = load ptr, ptr %24, align 8, !tbaa !7
  %63 = load double, ptr %16, align 8, !tbaa !40
  %64 = load ptr, ptr %25, align 8, !tbaa !63
  %65 = getelementptr inbounds nuw %struct.CVadjMemRec, ptr %64, i32 0, i32 27
  %66 = load ptr, ptr %65, align 8, !tbaa !83
  %67 = call i32 %61(ptr noundef %62, double noundef %63, ptr noundef %66, ptr noundef null)
  store i32 %67, ptr %29, align 4, !tbaa !43
  br label %68

68:                                               ; preds = %58, %45
  %69 = load i32, ptr %29, align 4, !tbaa !43
  %70 = icmp ne i32 %69, 0
  br i1 %70, label %71, label %73

71:                                               ; preds = %68
  %72 = load ptr, ptr %24, align 8, !tbaa !7
  call void (ptr, i32, ptr, ptr, ptr, ...) @cvProcessError(ptr noundef %72, i32 noundef -1, ptr noundef @.str.5, ptr noundef @.str.29, ptr noundef @.str.26)
  store i32 -1, ptr %12, align 4
  store i32 1, ptr %30, align 4
  br label %98

73:                                               ; preds = %68
  %74 = load ptr, ptr %27, align 8, !tbaa !77
  %75 = getelementptr inbounds nuw %struct.CVDlsMemRecB, ptr %74, i32 0, i32 4
  %76 = load ptr, ptr %75, align 8, !tbaa !92
  %77 = load i64, ptr %13, align 8, !tbaa !31
  %78 = load i64, ptr %14, align 8, !tbaa !31
  %79 = load i64, ptr %15, align 8, !tbaa !31
  %80 = load double, ptr %16, align 8, !tbaa !40
  %81 = load ptr, ptr %25, align 8, !tbaa !63
  %82 = getelementptr inbounds nuw %struct.CVadjMemRec, ptr %81, i32 0, i32 27
  %83 = load ptr, ptr %82, align 8, !tbaa !83
  %84 = load ptr, ptr %25, align 8, !tbaa !63
  %85 = getelementptr inbounds nuw %struct.CVadjMemRec, ptr %84, i32 0, i32 28
  %86 = load ptr, ptr %85, align 8, !tbaa !88
  %87 = load ptr, ptr %17, align 8, !tbaa !41
  %88 = load ptr, ptr %18, align 8, !tbaa !41
  %89 = load ptr, ptr %19, align 8, !tbaa !42
  %90 = load ptr, ptr %26, align 8, !tbaa !70
  %91 = getelementptr inbounds nuw %struct.CVodeBMemRec, ptr %90, i32 0, i32 9
  %92 = load ptr, ptr %91, align 8, !tbaa !84
  %93 = load ptr, ptr %21, align 8, !tbaa !41
  %94 = load ptr, ptr %22, align 8, !tbaa !41
  %95 = load ptr, ptr %23, align 8, !tbaa !41
  %96 = call i32 %76(i64 noundef %77, i64 noundef %78, i64 noundef %79, double noundef %80, ptr noundef %83, ptr noundef %86, ptr noundef %87, ptr noundef %88, ptr noundef %89, ptr noundef %92, ptr noundef %93, ptr noundef %94, ptr noundef %95)
  store i32 %96, ptr %28, align 4, !tbaa !43
  %97 = load i32, ptr %28, align 4, !tbaa !43
  store i32 %97, ptr %12, align 4
  store i32 1, ptr %30, align 4
  br label %98

98:                                               ; preds = %73, %71
  call void @llvm.lifetime.end.p0(i64 4, ptr %29) #5
  call void @llvm.lifetime.end.p0(i64 4, ptr %28) #5
  call void @llvm.lifetime.end.p0(i64 8, ptr %27) #5
  call void @llvm.lifetime.end.p0(i64 8, ptr %26) #5
  call void @llvm.lifetime.end.p0(i64 8, ptr %25) #5
  call void @llvm.lifetime.end.p0(i64 8, ptr %24) #5
  %99 = load i32, ptr %12, align 4
  ret i32 %99
}