; Function Attrs: nounwind uwtable
define internal i32 @cvDlsBandJacBSWrapper(i64 noundef %0, i64 noundef %1, i64 noundef %2, double noundef %3, ptr noundef %4, ptr noundef %5, ptr noundef %6, ptr noundef %7, ptr noundef %8, ptr noundef %9, ptr noundef %10) #0 {
  %12 = getelementptr inbounds nuw i8, ptr %7, i64 2192
  %13 = load ptr, ptr %12, align 8, !tbaa !51
  %14 = getelementptr inbounds nuw i8, ptr %13, i64 48
  %15 = load ptr, ptr %14, align 8, !tbaa !66
  %16 = getelementptr inbounds nuw i8, ptr %15, i64 72
  %17 = load ptr, ptr %16, align 8, !tbaa !63
  %18 = getelementptr inbounds nuw i8, ptr %13, i64 164
  %19 = load i32, ptr %18, align 4, !tbaa !71
  %.not = icmp eq i32 %19, 0
  %20 = getelementptr inbounds nuw i8, ptr %13, i64 144
  %21 = load ptr, ptr %20, align 8, !tbaa !67
  %22 = getelementptr inbounds nuw i8, ptr %13, i64 480
  %23 = load ptr, ptr %22, align 8, !tbaa !68
  br i1 %.not, label %27, label %24

24:                                               ; preds = %11
  %25 = getelementptr inbounds nuw i8, ptr %13, i64 488
  %26 = load ptr, ptr %25, align 8, !tbaa !72
  br label %27

27:                                               ; preds = %11, %24
  %.sink = phi ptr [ %26, %24 ], [ null, %11 ]
  %28 = tail call i32 %21(ptr noundef nonnull %7, double noundef %3, ptr noundef %23, ptr noundef %.sink) #6
  %.not32 = icmp eq i32 %28, 0
  br i1 %.not32, label %30, label %29

29:                                               ; preds = %27
  tail call void (ptr, i32, ptr, ptr, ptr, ...) @cvProcessError(ptr noundef nonnull %7, i32 noundef -1, ptr noundef nonnull @.str.5, ptr noundef nonnull @.str.29, ptr noundef nonnull @.str.26) #6
  br label %40

30:                                               ; preds = %27
  %31 = getelementptr inbounds nuw i8, ptr %17, i64 32
  %32 = load ptr, ptr %31, align 8, !tbaa !74
  %33 = getelementptr inbounds nuw i8, ptr %13, i64 480
  %34 = load ptr, ptr %33, align 8, !tbaa !68
  %35 = getelementptr inbounds nuw i8, ptr %13, i64 488
  %36 = load ptr, ptr %35, align 8, !tbaa !72
  %37 = getelementptr inbounds nuw i8, ptr %15, i64 64
  %38 = load ptr, ptr %37, align 8, !tbaa !69
  %39 = tail call i32 %32(i64 noundef %0, i64 noundef %1, i64 noundef %2, double noundef %3, ptr noundef %34, ptr noundef %36, ptr noundef %4, ptr noundef %5, ptr noundef %6, ptr noundef %38, ptr noundef %8, ptr noundef %9, ptr noundef %10) #6
  br label %40

40:                                               ; preds = %30, %29
  %.031 = phi i32 [ -1, %29 ], [ %39, %30 ]
  ret i32 %.031
}